target datalayout = "e-m:e-p270:32:32-p271:32:32-p272:64:64-i64:64-i128:128-f80:128-n8:16:32:64-S128"
target triple = "x86_64-pc-linux-gnu"

%struct.H5D_chunk_rec_t = type { [33 x i64], i32, i32, i64 }
%struct.H5D_bt2_ctx_t = type { i32, i64, i64, i32, ptr }

; Function Attrs: nounwind uwtable
define internal i32 @H5D__bt2_unfilt_decode(ptr noundef %0, ptr noundef %1, ptr noundef %2) #0 {
  %4 = alloca ptr, align 8
  %5 = alloca ptr, align 8
  %6 = alloca ptr, align 8
  %7 = alloca ptr, align 8
  %8 = alloca ptr, align 8
  %9 = alloca i32, align 4
  %10 = alloca i64, align 8
  store ptr %0, ptr %4, align 8
  store ptr %1, ptr %5, align 8
  store ptr %2, ptr %6, align 8
  %11 = load ptr, ptr %6, align 8
  store ptr %11, ptr %7, align 8
  %12 = load ptr, ptr %5, align 8
  store ptr %12, ptr %8, align 8
  %13 = load ptr, ptr %7, align 8
  %14 = getelementptr inbounds %struct.H5D_bt2_ctx_t, ptr %13, i32 0, i32 1
  %15 = load i64, ptr %14, align 8
  %16 = load ptr, ptr %8, align 8
  %17 = getelementptr inbounds %struct.H5D_chunk_rec_t, ptr %16, i32 0, i32 3
  call void @H5F_addr_decode_len(i64 noundef %15, ptr noundef %4, ptr noundef %17)
  %18 = load ptr, ptr %7, align 8
  %19 = getelementptr inbounds %struct.H5D_bt2_ctx_t, ptr %18, i32 0, i32 0
  %20 = load i32, ptr %19, align 8
  %21 = load ptr, ptr %8, align 8
  %22 = getelementptr inbounds %struct.H5D_chunk_rec_t, ptr %21, i32 0, i32 1
  store i32 %20, ptr %22, align 8
  %23 = load ptr, ptr %8, align 8
  %24 = getelementptr inbounds %struct.H5D_chunk_rec_t, ptr %23, i32 0, i32 2
  store i32 0, ptr %24, align 4
  store i32 0, ptr %9, align 4
  br label %25

25:                                               ; preds = %68, %3
  %26 = load i32, ptr %9, align 4
  %27 = load ptr, ptr %7, align 8
  %28 = getelementptr inbounds %struct.H5D_bt2_ctx_t, ptr %27, i32 0, i32 3
  %29 = load i32, ptr %28, align 8
  %30 = icmp ult i32 %26, %29
  br i1 %30, label %31, label %71

31:                                               ; preds = %25
  br label %32

32:                                               ; preds = %31
  %33 = load ptr, ptr %8, align 8
  %34 = getelementptr inbounds %struct.H5D_chunk_rec_t, ptr %33, i32 0, i32 0
  %35 = load i32, ptr %9, align 4
  %36 = zext i32 %35 to i64
  %37 = getelementptr inbounds [33 x i64], ptr %34, i64 0, i64 %36
  store i64 0, ptr %37, align 8
  %38 = load ptr, ptr %4, align 8
  %39 = getelementptr inbounds i8, ptr %38, i64 8
  store ptr %39, ptr %4, align 8
  store i64 0, ptr %10, align 8
  br label %40

40:                                               ; preds = %61, %32
  %41 = load i64, ptr %10, align 8
  %42 = icmp ult i64 %41, 8
  br i1 %42, label %43, label %64

43:                                               ; preds = %40
  %44 = load ptr, ptr %8, align 8
  %45 = getelementptr inbounds %struct.H5D_chunk_rec_t, ptr %44, i32 0, i32 0
  %46 = load i32, ptr %9, align 4
  %47 = zext i32 %46 to i64
  %48 = getelementptr inbounds [33 x i64], ptr %45, i64 0, i64 %47
  %49 = load i64, ptr %48, align 8
  %50 = shl i64 %49, 8
  %51 = load ptr, ptr %4, align 8
  %52 = getelementptr inbounds i8, ptr %51, i32 -1
  store ptr %52, ptr %4, align 8
  %53 = load i8, ptr %52, align 1
  %54 = zext i8 %53 to i64
  %55 = or i64 %50, %54
  %56 = load ptr, ptr %8, align 8
  %57 = getelementptr inbounds %struct.H5D_chunk_rec_t, ptr %56, i32 0, i32 0
  %58 = load i32, ptr %9, align 4
  %59 = zext i32 %58 to i64
  %60 = getelementptr inbounds [33 x i64], ptr %57, i64 0, i64 %59
  store i64 %55, ptr %60, align 8
  br label %61

61:                                               ; preds = %43
  %62 = load i64, ptr %10, align 8
  %63 = add i64 %62, 1
  store i64 %63, ptr %10, align 8
  br label %40

64:                                               ; preds = %40
  %65 = load ptr, ptr %4, align 8
  %66 = getelementptr inbounds i8, ptr %65, i64 8
  store ptr %66, ptr %4, align 8
  br label %67

67:                                               ; preds = %64
  br label %68

68:                                               ; preds = %67
  %69 = load i32, ptr %9, align 4
  %70 = add i32 %69, 1
  store i32 %70, ptr %9, align 4
  br label %25

71:                                               ; preds = %25
  ret i32 0
}