; Function Attrs: nounwind uwtable
define internal noundef i32 @H5D__bt2_unfilt_decode(ptr noundef %0, ptr noundef %1, ptr nocapture noundef readonly %2) #1 {
  %4 = alloca ptr, align 8
  store ptr %0, ptr %4, align 8
  %5 = getelementptr inbounds i8, ptr %2, i64 8
  %6 = load i64, ptr %5, align 8
  %7 = getelementptr inbounds i8, ptr %1, i64 272
  call void @H5F_addr_decode_len(i64 noundef %6, ptr noundef nonnull %4, ptr noundef nonnull %7) #14
  %8 = load i32, ptr %2, align 8
  %9 = getelementptr inbounds i8, ptr %1, i64 264
  store i32 %8, ptr %9, align 8
  %10 = getelementptr inbounds i8, ptr %1, i64 268
  store i32 0, ptr %10, align 4
  %11 = getelementptr inbounds i8, ptr %2, i64 24
  %12 = load i32, ptr %11, align 8
  %.not = icmp eq i32 %12, 0
  br i1 %.not, label %._crit_edge, label %.lr.ph.preheader

.lr.ph.preheader:                                 ; preds = %3
  %.promoted20 = load ptr, ptr %4, align 8
  br label %.lr.ph

.lr.ph:                                           ; preds = %.lr.ph.preheader, %24
  %indvars.iv = phi i64 [ 0, %.lr.ph.preheader ], [ %indvars.iv.next, %24 ]
  %.promoted182122 = phi ptr [ %.promoted20, %.lr.ph.preheader ], [ %25, %24 ]
  %13 = getelementptr inbounds [33 x i64], ptr %1, i64 0, i64 %indvars.iv
  store i64 0, ptr %13, align 8
  %14 = getelementptr inbounds i8, ptr %.promoted182122, i64 8
  br label %15

15:                                               ; preds = %.lr.ph, %15
  %.019 = phi i64 [ 0, %.lr.ph ], [ %23, %15 ]
  %16 = phi i64 [ 0, %.lr.ph ], [ %22, %15 ]
  %17 = phi ptr [ %14, %.lr.ph ], [ %19, %15 ]
  %18 = shl i64 %16, 8
  %19 = getelementptr inbounds i8, ptr %17, i64 -1
  store ptr %19, ptr %4, align 8
  %20 = load i8, ptr %19, align 1
  %21 = zext i8 %20 to i64
  %22 = or disjoint i64 %18, %21
  store i64 %22, ptr %13, align 8
  %23 = add nuw nsw i64 %.019, 1
  %exitcond.not = icmp eq i64 %23, 8
  br i1 %exitcond.not, label %24, label %15

24:                                               ; preds = %15
  %25 = getelementptr inbounds i8, ptr %17, i64 7
  store ptr %25, ptr %4, align 8
  %indvars.iv.next = add nuw nsw i64 %indvars.iv, 1
  %26 = load i32, ptr %11, align 8
  %27 = zext i32 %26 to i64
  %28 = icmp ult i64 %indvars.iv.next, %27
  br i1 %28, label %.lr.ph, label %._crit_edge

._crit_edge:                                      ; preds = %24, %3
  ret i32 0
}